target datalayout = "e-m:e-p270:32:32-p271:32:32-p272:64:64-i64:64-i128:128-f80:128-n8:16:32:64-S128"
target triple = "x86_64-pc-linux-gnu"

%struct.aofInfo = type { ptr, i64, i32, i64, i64 }

@.str.1 = private unnamed_addr constant [6 x i8] c"aof.c\00", align 1
@.str.2 = private unnamed_addr constant [13 x i8] c"orig != NULL\00", align 1

; Function Attrs: nounwind uwtable
define dso_local ptr @aofInfoCreate() #0 {
  %1 = alloca ptr, align 8
  call void @llvm.lifetime.start.p0(i64 8, ptr %1) #12
  %2 = call noalias ptr @zcalloc(i64 noundef 40) #13
  store ptr %2, ptr %1, align 8, !tbaa !5
  %3 = load ptr, ptr %1, align 8, !tbaa !5
  %4 = getelementptr inbounds nuw %struct.aofInfo, ptr %3, i32 0, i32 3
  store i64 -1, ptr %4, align 8, !tbaa !9
  %5 = load ptr, ptr %1, align 8, !tbaa !5
  %6 = getelementptr inbounds nuw %struct.aofInfo, ptr %5, i32 0, i32 4
  store i64 -1, ptr %6, align 8, !tbaa !14
  %7 = load ptr, ptr %1, align 8, !tbaa !5
  call void @llvm.lifetime.end.p0(i64 8, ptr %1) #12
  ret ptr %7
}

; Function Attrs: nounwind uwtable
define dso_local ptr @aofInfoDup(ptr noundef %0) #0 {
  %2 = alloca ptr, align 8
  %3 = alloca ptr, align 8
  store ptr %0, ptr %2, align 8, !tbaa !5
  %4 = load ptr, ptr %2, align 8, !tbaa !5
  %5 = icmp ne ptr %4, null
  %6 = xor i1 %5, true
  %7 = xor i1 %6, true
  %8 = zext i1 %7 to i32
  %9 = sext i32 %8 to i64
  %10 = call i64 @llvm.expect.i64(i64 %9, i64 1)
  %11 = icmp ne i64 %10, 0
  br i1 %11, label %12, label %13

12:                                               ; preds = %1
  br label %15

13:                                               ; preds = %1
  call void @_serverAssert(ptr noundef @.str.2, ptr noundef @.str.1, i32 noundef 103)
  call void @abort() #14
  unreachable

14:                                               ; No predecessors!
  br label %15

15:                                               ; preds = %14, %12
  call void @llvm.lifetime.start.p0(i64 8, ptr %3) #12
  %16 = call ptr @aofInfoCreate()
  store ptr %16, ptr %3, align 8, !tbaa !5
  %17 = load ptr, ptr %2, align 8, !tbaa !5
  %18 = getelementptr inbounds nuw %struct.aofInfo, ptr %17, i32 0, i32 0
  %19 = load ptr, ptr %18, align 8, !tbaa !15
  %20 = call ptr @sdsdup(ptr noundef %19)
  %21 = load ptr, ptr %3, align 8, !tbaa !5
  %22 = getelementptr inbounds nuw %struct.aofInfo, ptr %21, i32 0, i32 0
  store ptr %20, ptr %22, align 8, !tbaa !15
  %23 = load ptr, ptr %2, align 8, !tbaa !5
  %24 = getelementptr inbounds nuw %struct.aofInfo, ptr %23, i32 0, i32 1
  %25 = load i64, ptr %24, align 8, !tbaa !16
  %26 = load ptr, ptr %3, align 8, !tbaa !5
  %27 = getelementptr inbounds nuw %struct.aofInfo, ptr %26, i32 0, i32 1
  store i64 %25, ptr %27, align 8, !tbaa !16
  %28 = load ptr, ptr %2, align 8, !tbaa !5
  %29 = getelementptr inbounds nuw %struct.aofInfo, ptr %28, i32 0, i32 2
  %30 = load i32, ptr %29, align 8, !tbaa !17
  %31 = load ptr, ptr %3, align 8, !tbaa !5
  %32 = getelementptr inbounds nuw %struct.aofInfo, ptr %31, i32 0, i32 2
  store i32 %30, ptr %32, align 8, !tbaa !17
  %33 = load ptr, ptr %2, align 8, !tbaa !5
  %34 = getelementptr inbounds nuw %struct.aofInfo, ptr %33, i32 0, i32 3
  %35 = load i64, ptr %34, align 8, !tbaa !9
  %36 = load ptr, ptr %3, align 8, !tbaa !5
  %37 = getelementptr inbounds nuw %struct.aofInfo, ptr %36, i32 0, i32 3
  store i64 %35, ptr %37, align 8, !tbaa !9
  %38 = load ptr, ptr %2, align 8, !tbaa !5
  %39 = getelementptr inbounds nuw %struct.aofInfo, ptr %38, i32 0, i32 4
  %40 = load i64, ptr %39, align 8, !tbaa !14
  %41 = load ptr, ptr %3, align 8, !tbaa !5
  %42 = getelementptr inbounds nuw %struct.aofInfo, ptr %41, i32 0, i32 4
  store i64 %40, ptr %42, align 8, !tbaa !14
  %43 = load ptr, ptr %3, align 8, !tbaa !5
  call void @llvm.lifetime.end.p0(i64 8, ptr %3) #12
  ret ptr %43
}

; Function Attrs: nounwind uwtable
define dso_local ptr @aofListDup(ptr noundef %0) #0 {
  %2 = alloca ptr, align 8
  store ptr %0, ptr %2, align 8, !tbaa !5
  %3 = load ptr, ptr %2, align 8, !tbaa !5
  %4 = call ptr @aofInfoDup(ptr noundef %3)
  ret ptr %4
}