; Function Attrs: nounwind uwtable
define dso_local noalias noundef ptr @aofListDup(ptr noundef readonly captures(address_is_null) %0) #0 {
  %.not.i = icmp eq ptr %0, null
  br i1 %.not.i, label %2, label %aofInfoDup.exit, !prof !5

2:                                                ; preds = %1
  tail call void @_serverAssert(ptr noundef nonnull @.str.2, ptr noundef nonnull @.str.1, i32 noundef 103) #20
  tail call void @abort() #21
  unreachable

aofInfoDup.exit:                                  ; preds = %1
  %3 = tail call noalias noundef dereferenceable_or_null(40) ptr @zcalloc(i64 noundef 40) #19
  %4 = getelementptr inbounds nuw i8, ptr %3, i64 24
  %5 = load ptr, ptr %0, align 8, !tbaa !6
  %6 = tail call ptr @sdsdup(ptr noundef %5) #20
  store ptr %6, ptr %3, align 8, !tbaa !6
  %7 = getelementptr inbounds nuw i8, ptr %0, i64 8
  %8 = load i64, ptr %7, align 8, !tbaa !14
  %9 = getelementptr inbounds nuw i8, ptr %3, i64 8
  store i64 %8, ptr %9, align 8, !tbaa !14
  %10 = getelementptr inbounds nuw i8, ptr %0, i64 16
  %11 = load i32, ptr %10, align 8, !tbaa !15
  %12 = getelementptr inbounds nuw i8, ptr %3, i64 16
  store i32 %11, ptr %12, align 8, !tbaa !15
  %13 = getelementptr inbounds nuw i8, ptr %0, i64 24
  %14 = load i64, ptr %13, align 8, !tbaa !16
  store i64 %14, ptr %4, align 8, !tbaa !16
  %15 = getelementptr inbounds nuw i8, ptr %0, i64 32
  %16 = load i64, ptr %15, align 8, !tbaa !17
  %17 = getelementptr inbounds nuw i8, ptr %3, i64 32
  store i64 %16, ptr %17, align 8, !tbaa !17
  ret ptr %3
}